; ModuleID = '34/919.c'
source_filename = "34/919.c"
target datalayout = "e-m:e-p270:32:32-p271:32:32-p272:64:64-i64:64-f80:128-n8:16:32:64-S128"
target triple = "x86_64-pc-linux-gnu"

@.str = private unnamed_addr constant [3 x i8] c"%d\00", align 1
@.str.1 = private unnamed_addr constant [4 x i8] c"End\00", align 1
@.str.2 = private unnamed_addr constant [9 x i8] c"%d/2=%d\0A\00", align 1
@.str.3 = private unnamed_addr constant [11 x i8] c"%d*3+1=%d\0A\00", align 1

; Function Attrs: noinline nounwind uwtable
define dso_local i32 @main() #0 {
  %1 = alloca i32, align 4
  %2 = alloca i32, align 4
  %3 = alloca i32, align 4
  store i32 0, i32* %1, align 4
  %4 = call i32 (i8*, ...) @__isoc99_scanf(i8* getelementptr inbounds ([3 x i8], [3 x i8]* @.str, i64 0, i64 0), i32* %2)
  %5 = load i32, i32* %2, align 4
  store i32 %5, i32* %3, align 4
  %6 = load i32, i32* %2, align 4
  %7 = icmp eq i32 %6, 1
  br i1 %7, label %8, label %10

8:                                                ; preds = %0
  %9 = call i32 (i8*, ...) @printf(i8* getelementptr inbounds ([4 x i8], [4 x i8]* @.str.1, i64 0, i64 0))
  br label %10

10:                                               ; preds = %8, %0
  br label %11

11:                                               ; preds = %38, %10
  %12 = load i32, i32* %2, align 4
  %13 = icmp ne i32 %12, 1
  br i1 %13, label %14, label %39

14:                                               ; preds = %11
  %15 = load i32, i32* %2, align 4
  %16 = srem i32 %15, 2
  %17 = icmp eq i32 %16, 0
  br i1 %17, label %18, label %25

18:                                               ; preds = %14
  %19 = load i32, i32* %3, align 4
  %20 = sdiv i32 %19, 2
  store i32 %20, i32* %3, align 4
  %21 = load i32, i32* %2, align 4
  %22 = load i32, i32* %3, align 4
  %23 = call i32 (i8*, ...) @printf(i8* getelementptr inbounds ([9 x i8], [9 x i8]* @.str.2, i64 0, i64 0), i32 %21, i32 %22)
  %24 = load i32, i32* %3, align 4
  store i32 %24, i32* %2, align 4
  br label %33

25:                                               ; preds = %14
  %26 = load i32, i32* %2, align 4
  %27 = mul nsw i32 3, %26
  %28 = add nsw i32 %27, 1
  store i32 %28, i32* %3, align 4
  %29 = load i32, i32* %2, align 4
  %30 = load i32, i32* %3, align 4
  %31 = call i32 (i8*, ...) @printf(i8* getelementptr inbounds ([11 x i8], [11 x i8]* @.str.3, i64 0, i64 0), i32 %29, i32 %30)
  %32 = load i32, i32* %3, align 4
  store i32 %32, i32* %2, align 4
  br label %33

33:                                               ; preds = %25, %18
  %34 = load i32, i32* %3, align 4
  %35 = icmp eq i32 %34, 1
  br i1 %35, label %36, label %38

36:                                               ; preds = %33
  %37 = call i32 (i8*, ...) @printf(i8* getelementptr inbounds ([4 x i8], [4 x i8]* @.str.1, i64 0, i64 0))
  br label %39

38:                                               ; preds = %33
  br label %11

39:                                               ; preds = %36, %11
  ret i32 0
}

declare dso_local i32 @__isoc99_scanf(i8*, ...) #1

declare dso_local i32 @printf(i8*, ...) #1


!llvm.module.flags = !{!0}
!llvm.ident = !{!1}

!0 = !{i32 1, !"wchar_size", i32 4}
!1 = !{!"clang version 10.0.0-4ubuntu1 "}
